; Function Attrs: nounwind uwtable
define hidden noundef zeroext i1 @Wayland_SuspendScreenSaver(ptr noundef readonly captures(none) %0) local_unnamed_addr #0 {
  %2 = getelementptr inbounds nuw i8, ptr %0, i64 1656
  %3 = load ptr, ptr %2, align 8
  %4 = getelementptr inbounds nuw i8, ptr %0, i64 786
  %5 = load i8, ptr %4, align 2, !range !5, !noundef !6
  %6 = trunc nuw i8 %5 to i1
  %7 = tail call zeroext i1 @SDL_DBus_ScreensaverInhibit(i1 noundef zeroext %6) #15
  br i1 %7, label %.loopexit, label %8

8:                                                ; preds = %1
  %9 = getelementptr inbounds nuw i8, ptr %3, i64 128
  %10 = load ptr, ptr %9, align 8
  %.not = icmp eq ptr %10, null
  br i1 %.not, label %.loopexit, label %11

11:                                               ; preds = %8
  %12 = getelementptr inbounds nuw i8, ptr %0, i64 832
  %.01721 = load ptr, ptr %12, align 8
  %.not1822 = icmp eq ptr %.01721, null
  br i1 %.not1822, label %.loopexit, label %.lr.ph

.lr.ph:                                           ; preds = %11, %.thread
  %.01723 = phi ptr [ %.017, %.thread ], [ %.01721, %11 ]
  %13 = getelementptr inbounds nuw i8, ptr %.01723, i64 392
  %14 = load ptr, ptr %13, align 8
  %15 = load i8, ptr %4, align 2, !range !5, !noundef !6
  %16 = trunc nuw i8 %15 to i1
  %17 = getelementptr inbounds nuw i8, ptr %14, i64 128
  %18 = load ptr, ptr %17, align 8
  %.not19 = icmp eq ptr %18, null
  br i1 %16, label %19, label %28

19:                                               ; preds = %.lr.ph
  br i1 %.not19, label %20, label %.thread

20:                                               ; preds = %19
  %21 = load ptr, ptr %9, align 8
  %22 = getelementptr inbounds nuw i8, ptr %14, i64 16
  %23 = load ptr, ptr %22, align 8
  %24 = load ptr, ptr @WAYLAND_wl_proxy_marshal_flags, align 8
  %25 = load ptr, ptr @WAYLAND_wl_proxy_get_version, align 8
  %26 = tail call i32 %25(ptr noundef %21) #15
  %27 = tail call ptr (ptr, i32, ptr, i32, i32, ...) %24(ptr noundef %21, i32 noundef 1, ptr noundef nonnull @zwp_idle_inhibitor_v1_interface, i32 noundef %26, i32 noundef 0, ptr noundef null, ptr noundef %23) #15
  br label %.thread.sink.split

28:                                               ; preds = %.lr.ph
  br i1 %.not19, label %.thread, label %29

29:                                               ; preds = %28
  %30 = load ptr, ptr @WAYLAND_wl_proxy_marshal_flags, align 8
  %31 = load ptr, ptr @WAYLAND_wl_proxy_get_version, align 8
  %32 = tail call i32 %31(ptr noundef nonnull %18) #15
  %33 = tail call ptr (ptr, i32, ptr, i32, i32, ...) %30(ptr noundef nonnull %18, i32 noundef 0, ptr noundef null, i32 noundef %32, i32 noundef 1) #15
  br label %.thread.sink.split

.thread.sink.split:                               ; preds = %20, %29
  %.sink = phi ptr [ null, %29 ], [ %27, %20 ]
  store ptr %.sink, ptr %17, align 8
  br label %.thread

.thread:                                          ; preds = %.thread.sink.split, %19, %28
  %34 = getelementptr inbounds nuw i8, ptr %.01723, i64 416
  %.017 = load ptr, ptr %34, align 8
  %.not18 = icmp eq ptr %.017, null
  br i1 %.not18, label %.loopexit, label %.lr.ph, !llvm.loop !14

.loopexit:                                        ; preds = %.thread, %11, %8, %1
  ret i1 true
}